; Function Attrs: mustprogress nounwind uwtable
define internal fastcc void @_ZN6hermes6ESTree24RecursiveVisitorDispatchINS_12_GLOBAL__N_119DependencyExtractorELb1EE13visitChildrenERS3_PNS0_17NewExpressionNodeE(ptr noundef nonnull align 8 dereferenceable(145) %v, ptr noundef readonly %node) unnamed_addr #0 align 2 {
entry:
  %_callee = getelementptr inbounds i8, ptr %node, i64 48
  %0 = load ptr, ptr %_callee, align 8
  tail call fastcc void @_ZN6hermes6ESTree24RecursiveVisitorDispatchINS_12_GLOBAL__N_119DependencyExtractorELb1EE5visitERS3_PNS0_4NodeES7_(ptr noundef nonnull align 8 dereferenceable(145) %v, ptr noundef %0)
  %_typeArguments = getelementptr inbounds i8, ptr %node, i64 56
  %1 = load ptr, ptr %_typeArguments, align 8
  tail call fastcc void @_ZN6hermes6ESTree24RecursiveVisitorDispatchINS_12_GLOBAL__N_119DependencyExtractorELb1EE5visitERS3_PNS0_4NodeES7_(ptr noundef nonnull align 8 dereferenceable(145) %v, ptr noundef %1)
  %_arguments = getelementptr inbounds i8, ptr %node, i64 64
  %Next.i.i.i.i = getelementptr inbounds i8, ptr %node, i64 72
  %__begin4.i.sroa.0.010 = load ptr, ptr %Next.i.i.i.i, align 8
  %cmp.i.not11 = icmp eq ptr %__begin4.i.sroa.0.010, %_arguments
  br i1 %cmp.i.not11, label %_ZN6hermes6ESTree24RecursiveVisitorDispatchINS_12_GLOBAL__N_119DependencyExtractorELb1EE5visitERS3_RN4llvh12simple_ilistINS0_4NodeEJEEEPS8_.exit, label %for.body.i

for.body.i:                                       ; preds = %entry, %for.body.i
  %__begin4.i.sroa.0.012 = phi ptr [ %__begin4.i.sroa.0.0, %for.body.i ], [ %__begin4.i.sroa.0.010, %entry ]
  tail call fastcc void @_ZN6hermes6ESTree24RecursiveVisitorDispatchINS_12_GLOBAL__N_119DependencyExtractorELb1EE5visitERS3_PNS0_4NodeES7_(ptr noundef nonnull align 8 dereferenceable(145) %v, ptr noundef nonnull %__begin4.i.sroa.0.012)
  %Next.i.i.i = getelementptr inbounds i8, ptr %__begin4.i.sroa.0.012, i64 8
  %__begin4.i.sroa.0.0 = load ptr, ptr %Next.i.i.i, align 8
  %cmp.i.not = icmp eq ptr %__begin4.i.sroa.0.0, %_arguments
  br i1 %cmp.i.not, label %_ZN6hermes6ESTree24RecursiveVisitorDispatchINS_12_GLOBAL__N_119DependencyExtractorELb1EE5visitERS3_RN4llvh12simple_ilistINS0_4NodeEJEEEPS8_.exit, label %for.body.i

_ZN6hermes6ESTree24RecursiveVisitorDispatchINS_12_GLOBAL__N_119DependencyExtractorELb1EE5visitERS3_RN4llvh12simple_ilistINS0_4NodeEJEEEPS8_.exit: ; preds = %for.body.i, %entry
  ret void
}